RC51 COMPILER V06.20.17.263,  I2C_LCD            01/15/23  21:27:58  PAGE  1

QCW(0x00002F32)

DOS RC51 COMPILER V06.20.17.263, COMPILATION OF MODULE I2C_LCD   
OBJECT MODULE PLACED IN C:\Users\kaltc\Documents\GitHub\Z80_Modular_Computer\Rid
            -e7\I2C_LCD\I2C_LCD.obj
COMPILER INVOKED BY: QUIET GENERATEDEPFILE OJ(C:\Users\kaltc\Documents\GitHub\Z8
            -0_Modular_Computer\Ride7\I2C_LCD\I2C_LCD.obj) PIN(C:\Users\kaltc\Do
            -cuments\Raisonance\Ride\Inc;C:\Users\kaltc\Documents\Raisonance\Rid
            -e\Inc\51) PIN(C:\Users\kaltc\Documents\Raisonance\Ride\\inc\51) NOA
            -M CD PR(C:\Users\kaltc\Documents\GitHub\Z80_Modular_Computer\Ride7\
            -I2C_LCD\I2C_LCD.lst) FP(NOFLOAT) IP NOIS UNSIGNEDCHAR ET(CHAR) PR P
            -L(60) PW(80) OE(1) OT(7,SPEED) RB(0) MAXERR(25) MAXWAR(25) SM MOD51
            -7(NODP8,NOAU) 

stmt level    source
   1          /*
   2           I2C_LCD.c
   3            */
   4          
   5          #include <REG51.h>
   6          
   7          // Definitions
   8          #define pinRS   RXD
   9          #define pinR_W  TXD
  10          #define pinE    INT0
  11          #define pinSDA  T1
  12          #define pinSCL  RD
  13          #define CR      0x0D
  14          #define LF      0x0A
  15          
  16          unsigned int milli;
  17          
  18          // Function Prototyping
  19          void milliStart(void);
  20          void initLCD(void);
  21          void putLCD(char);
  22          
  23          void main() {
  24   1          char line1[] = "Display ready";
  25   1          char line2[] = "8-bit mode";
  26   1          int i;
  27   1      
  28   1          pinRS = 0;
  29   1          pinR_W = 0;
  30   1          pinE = 0;
  31   1          pinSDA = 1;
  32   1          pinSCL = 1;
  33   1      
  34   1          initLCD();
  35   1      
  36   1          while(1);
  37   1      
  38   1          i = 0;
  39   1          while(line1[i] != 0)
  40   1              putLCD(line1[i++]);
  41   1          
  42   1          P1 = 0xc0;  // Position cursor at the beginning of the 2nd lin
            -e.
  43   1          pinRS = 0;
RC51 COMPILER V06.20.17.263,  I2C_LCD            01/15/23  21:27:58  PAGE  2

  44   1          pinR_W = 0;
  45   1          pinE = 1;
  46   1          pinE = 0;
  47   1          
  48   1          i = 0;
  49   1          while(line2[i] != 0)
  50   1              putLCD(line2[i++]);
  51   1      }
  52          
  53          void milliStart(void) {
  54   1      	ET0 = 0;           //Disable TIMER0 interrupt while configuring i
            -t.
  55   1          TMOD |= 0x01;      //TIMER0 = mode_1.
  56   1          TH0 = 0xfc;        //Load the timer value for 1ms tick (crysta
            -l = 11.059MHz).
  57   1          TL0 = 0x66;
  58   1          TR0 = 1;           //Turn ON TIMER0.
  59   1          ET0 = 1;           //Enable TIMER0 Interrupt.
  60   1          EA = 1;            //Enable Global Interrupt.
  61   1      	
  62   1      	milli = 0;
  63   1      }
  64          
  65          void initLCD(void) {
  66   1          int i;
  67   1      
  68   1          milliStart();
  69   1          while(milli < 20);
  70   1      
  71   1          pinRS = 0; // Function set.
  72   1          pinR_W = 0;
  73   1          P1 = 0x38;
  74   1          pinE = 1;
  75   1          i++;
  76   1          pinE = 0;
  77   1      
  78   1          milli = 0;
  79   1          while(milli < 5);
  80   1          pinE = 1;   // Repeat function set.
  81   1          i++;
  82   1          pinE = 0;
  83   1      
  84   1          milli = 0;
  85   1          while(milli < 1);
  86   1          pinE = 1;   // Repeat function set.
  87   1          i++;
  88   1          pinE = 0;
  89   1      
  90   1          milli = 0;
  91   1          while(milli < 1);
  92   1          P1= 0x0e;   // Display on/off control.
  93   1          pinE = 1;
  94   1          i++;
  95   1          pinE = 0;
  96   1      
  97   1          milli = 0;
  98   1          while(milli < 1);
  99   1          P1= 0x06;   // Entry mode set.
RC51 COMPILER V06.20.17.263,  I2C_LCD            01/15/23  21:27:58  PAGE  5

 100   1          pinE = 1;
 101   1          i++;
 102   1          pinE = 0;
 103   1      }
 104          
 105          void putLCD(char c) {
 106   1          int i;
 107   1      
 108   1          pinRS = 0;
 109   1          pinR_W = 1;
 110   1          do {
 111   2              P1 = 0xff;
 112   2              pinE = 1;
 113   2              i++;
 114   2              pinE = 0;
 115   2          } while((P1 & 0x80) != 0);
 116   1      
 117   1          P1 = c;
 118   1          pinRS = 1;
 119   1          pinR_W = 0;
 120   1          pinE = 1;
 121   1          i++;
 122   1          pinE = 0;
 123   1      }
RC51 COMPILER V06.20.17.263,  I2C_LCD            01/15/23  21:27:58  PAGE  8

ASSEMBLY LISTING OF GENERATED OBJECT CODE

            ; FUNCTION main (BEGIN)
                                           ; SOURCE LINE # 24 
0000 7D05           MOV    R5,#005H
0002 7C00    R      MOV    R4,#HIGH(?STR?I2C_LCD?BASE)
0004 7800    R      MOV    R0,#LOW(?STR?I2C_LCD?BASE)
0006 7B01           MOV    R3,#001H
0008 E4             CLR    A
0009 FA             MOV    R2,A
000A 7900    R      MOV    R1,#line1
000C 7E0E           MOV    R6,#00EH
000E 120000  R      LCALL  ?C_CPY
                                           ; SOURCE LINE # 25 
0011 7D05           MOV    R5,#005H
0013 7C00    R      MOV    R4,#HIGH(?STR?I2C_LCD?BASE + 00EH)
0015 7800    R      MOV    R0,#LOW(?STR?I2C_LCD?BASE + 00EH)
0017 7B01           MOV    R3,#001H
0019 7900    R      MOV    R1,#line2
001B E4             CLR    A
001C FA             MOV    R2,A
001D 7E0B           MOV    R6,#00BH
001F 120000  R      LCALL  ?C_CPY
                                           ; SOURCE LINE # 28 
0022 C2B0           CLR    RXD
                                           ; SOURCE LINE # 29 
0024 C2B1           CLR    TXD
                                           ; SOURCE LINE # 30 
0026 C2B2           CLR    INT0
                                           ; SOURCE LINE # 31 
0028 D2B5           SETB   T1
                                           ; SOURCE LINE # 32 
002A D2B7           SETB   RD
                                           ; SOURCE LINE # 34 
002C 120000  R      LCALL  initLCD
002F         ?WHILE3:
                                           ; SOURCE LINE # 36 
002F 80FE           SJMP   ?WHILE3
                                           ; SOURCE LINE # 38 
0031 E4             CLR    A
0032 F500    R      MOV    i,A
0034 F500    R      MOV    i+01H,A
0036         ?WHILE4:
                                           ; SOURCE LINE # 39 
0036 E500    R      MOV    A,i+01H
0038 2400    R      ADD    A,#line1
003A F8             MOV    R0,A
003B E6             MOV    A,@R0
003C 6015           JZ     ?NXT2
                                           ; SOURCE LINE # 40 
003E AB00    R      MOV    R3,i+01H
0040 0500    R      INC    i+01H
0042 E500    R      MOV    A,i+01H
0044 7002           JNZ    ?LAB3
0046 0500    R      INC    i
0048         ?LAB3:
0048 EB             MOV    A,R3
0049 2400    R      ADD    A,#line1
004B F8             MOV    R0,A
004C 8607           MOV    AR7,@R0
RC51 COMPILER V06.20.17.263,  I2C_LCD            01/15/23  21:27:58  PAGE  3

004E 120000  R      LCALL  _putLCD
0051 80E3           SJMP   ?WHILE4
0053         ?NXT2:
                                           ; SOURCE LINE # 42 
0053 7590C0         MOV    P1,#0C0H
                                           ; SOURCE LINE # 43 
0056 C2B0           CLR    RXD
                                           ; SOURCE LINE # 44 
0058 C2B1           CLR    TXD
                                           ; SOURCE LINE # 45 
005A D2B2           SETB   INT0
                                           ; SOURCE LINE # 46 
005C C2B2           CLR    INT0
                                           ; SOURCE LINE # 48 
005E E4             CLR    A
005F F500    R      MOV    i,A
0061 F500    R      MOV    i+01H,A
0063         ?WHILE5:
                                           ; SOURCE LINE # 49 
0063 E500    R      MOV    A,i+01H
0065 2400    R      ADD    A,#line2
0067 F8             MOV    R0,A
0068 E6             MOV    A,@R0
0069 6015           JZ     ?NXT3
                                           ; SOURCE LINE # 50 
006B AB00    R      MOV    R3,i+01H
006D 0500    R      INC    i+01H
006F E500    R      MOV    A,i+01H
0071 7002           JNZ    ?LAB4
0073 0500    R      INC    i
0075         ?LAB4:
0075 EB             MOV    A,R3
0076 2400    R      ADD    A,#line2
0078 F8             MOV    R0,A
0079 8607           MOV    AR7,@R0
007B 120000  R      LCALL  _putLCD
007E 80E3           SJMP   ?WHILE5
0080         ?NXT3:
                                           ; SOURCE LINE # 51 
0080 22             RET    

            ; FUNCTION main (END)

            ; FUNCTION milliStart (BEGIN)
                                           ; SOURCE LINE # 54 
0000 C2A9           CLR    ET0
                                           ; SOURCE LINE # 55 
0002 438901         ORL    TMOD,#001H
                                           ; SOURCE LINE # 56 
0005 758CFC         MOV    TH0,#0FCH
                                           ; SOURCE LINE # 57 
0008 758A66         MOV    TL0,#066H
                                           ; SOURCE LINE # 58 
000B D28C           SETB   TR0
                                           ; SOURCE LINE # 59 
000D D2A9           SETB   ET0
                                           ; SOURCE LINE # 60 
000F D2AF           SETB   EA
RC51 COMPILER V06.20.17.263,  I2C_LCD            01/15/23  21:27:58  PAGE  4

                                           ; SOURCE LINE # 62 
0011 E4             CLR    A
0012 F500    R      MOV    milli,A
0014 F500    R      MOV    milli+01H,A
                                           ; SOURCE LINE # 63 
0016 22             RET    

            ; FUNCTION milliStart (END)

            ; FUNCTION initLCD (BEGIN)
                                           ; SOURCE LINE # 68 
0000 120000  R      LCALL  milliStart
0003         ?WHILE11:
                                           ; SOURCE LINE # 69 
0003 E500    R      MOV    A,milli
0005 B40005         CJNE   A,#000H,?LAB24
0008 E500    R      MOV    A,milli+01H
000A B41400         CJNE   A,#014H,?LAB24
000D         ?LAB24:
000D 40F4           JC     ?WHILE11
                                           ; SOURCE LINE # 71 
000F C2B0           CLR    RXD
                                           ; SOURCE LINE # 72 
0011 C2B1           CLR    TXD
                                           ; SOURCE LINE # 73 
0013 759038         MOV    P1,#038H
                                           ; SOURCE LINE # 74 
0016 D2B2           SETB   INT0
              ; R2R3 is assigned to i
                                           ; SOURCE LINE # 75 
0018 0B             INC    R3
0019 EB             MOV    A,R3
001A 7000           JNZ    ?LAB26
001C         ?LAB26:
                                           ; SOURCE LINE # 76 
001C C2B2           CLR    INT0
                                           ; SOURCE LINE # 78 
001E E4             CLR    A
001F F500    R      MOV    milli,A
0021 F500    R      MOV    milli+01H,A
0023         ?WHILE12:
                                           ; SOURCE LINE # 79 
0023 E500    R      MOV    A,milli
0025 B40005         CJNE   A,#000H,?LAB27
0028 E500    R      MOV    A,milli+01H
002A B40500         CJNE   A,#005H,?LAB27
002D         ?LAB27:
002D 40F4           JC     ?WHILE12
                                           ; SOURCE LINE # 80 
002F D2B2           SETB   INT0
                                           ; SOURCE LINE # 81 
0031 0B             INC    R3
0032 EB             MOV    A,R3
0033 7000           JNZ    ?LAB29
0035         ?LAB29:
                                           ; SOURCE LINE # 82 
0035 C2B2           CLR    INT0
                                           ; SOURCE LINE # 84 
RC51 COMPILER V06.20.17.263,  I2C_LCD            01/15/23  21:27:58  PAGE  6

0037 E4             CLR    A
0038 F500    R      MOV    milli,A
003A F500    R      MOV    milli+01H,A
003C         ?WHILE13:
                                           ; SOURCE LINE # 85 
003C E500    R      MOV    A,milli
003E B40005         CJNE   A,#000H,?LAB30
0041 E500    R      MOV    A,milli+01H
0043 B40100         CJNE   A,#001H,?LAB30
0046         ?LAB30:
0046 40F4           JC     ?WHILE13
                                           ; SOURCE LINE # 86 
0048 D2B2           SETB   INT0
                                           ; SOURCE LINE # 87 
004A 0B             INC    R3
004B EB             MOV    A,R3
004C 7000           JNZ    ?LAB32
004E         ?LAB32:
                                           ; SOURCE LINE # 88 
004E C2B2           CLR    INT0
                                           ; SOURCE LINE # 90 
0050 E4             CLR    A
0051 F500    R      MOV    milli,A
0053 F500    R      MOV    milli+01H,A
0055         ?WHILE14:
                                           ; SOURCE LINE # 91 
0055 E500    R      MOV    A,milli
0057 B40005         CJNE   A,#000H,?LAB33
005A E500    R      MOV    A,milli+01H
005C B40100         CJNE   A,#001H,?LAB33
005F         ?LAB33:
005F 40F4           JC     ?WHILE14
                                           ; SOURCE LINE # 92 
0061 75900E         MOV    P1,#00EH
                                           ; SOURCE LINE # 93 
0064 D2B2           SETB   INT0
                                           ; SOURCE LINE # 94 
0066 0B             INC    R3
0067 EB             MOV    A,R3
0068 7000           JNZ    ?LAB35
006A         ?LAB35:
                                           ; SOURCE LINE # 95 
006A C2B2           CLR    INT0
                                           ; SOURCE LINE # 97 
006C E4             CLR    A
006D F500    R      MOV    milli,A
006F F500    R      MOV    milli+01H,A
0071         ?WHILE15:
                                           ; SOURCE LINE # 98 
0071 E500    R      MOV    A,milli
0073 B40005         CJNE   A,#000H,?LAB36
0076 E500    R      MOV    A,milli+01H
0078 B40100         CJNE   A,#001H,?LAB36
007B         ?LAB36:
007B 40F4           JC     ?WHILE15
                                           ; SOURCE LINE # 99 
007D 759006         MOV    P1,#006H
                                           ; SOURCE LINE # 100 
RC51 COMPILER V06.20.17.263,  I2C_LCD            01/15/23  21:27:58  PAGE  7

0080 D2B2           SETB   INT0
                                           ; SOURCE LINE # 101 
0082 0B             INC    R3
0083 EB             MOV    A,R3
0084 7000           JNZ    ?LAB38
0086         ?LAB38:
                                           ; SOURCE LINE # 102 
0086 C2B2           CLR    INT0
                                           ; SOURCE LINE # 103 
0088 22             RET    

            ; FUNCTION initLCD (END)

            ; FUNCTION _putLCD (BEGIN)
              ; Register R7 is assigned to parameter c
                                           ; SOURCE LINE # 108 
0000 C2B0           CLR    RXD
                                           ; SOURCE LINE # 109 
0002 D2B1           SETB   TXD
              ; R4R5 is assigned to i
0004         ?DO1:
                                           ; SOURCE LINE # 111 
0004 7590FF         MOV    P1,#0FFH
                                           ; SOURCE LINE # 112 
0007 D2B2           SETB   INT0
                                           ; SOURCE LINE # 113 
0009 0D             INC    R5
000A ED             MOV    A,R5
000B 7001           JNZ    ?LAB43
000D 0C             INC    R4
000E         ?LAB43:
                                           ; SOURCE LINE # 114 
000E C2B2           CLR    INT0
0010 E590           MOV    A,P1
0012 20E7EF         JB     ACC.7,?DO1
                                           ; SOURCE LINE # 117 
0015 8F90           MOV    P1,R7
                                           ; SOURCE LINE # 118 
0017 D2B0           SETB   RXD
                                           ; SOURCE LINE # 119 
0019 C2B1           CLR    TXD
                                           ; SOURCE LINE # 120 
001B D2B2           SETB   INT0
                                           ; SOURCE LINE # 121 
001D 0D             INC    R5
001E ED             MOV    A,R5
001F 7000           JNZ    ?LAB44
0021         ?LAB44:
                                           ; SOURCE LINE # 122 
0021 C2B2           CLR    INT0
                                           ; SOURCE LINE # 123 
0023 22             RET    

            ; FUNCTION _putLCD (END)

RC51 COMPILER V06.20.17.263,  I2C_LCD            01/15/23  21:27:58  PAGE  9



MODULE INFORMATION:   STATIC OVERLAYABLE
   CODE SIZE        =    325    ----
   CONSTANT SIZE    =     25    ----
   XDATA SIZE       =   ----    ----
   PDATA SIZE       =   ----    ----
   DATA SIZE        =      2      31
   IDATA SIZE       =   ----    ----
   BIT SIZE         =   ----    ----
END OF MODULE INFORMATION.

RC51 COMPILATION COMPLETE.  0 WARNING,  0 ERROR
